; Function Attrs: mustprogress uwtable
define dso_local noundef i64 @_ZNK5cmELF23GetDynamicEntryPositionEi(ptr nocapture noundef nonnull readonly align 8 dereferenceable(40) %0, i32 noundef %1) local_unnamed_addr #0 align 2 {
  %3 = load ptr, ptr %0, align 8
  %.not.i = icmp eq ptr %3, null
  br i1 %.not.i, label %_ZNK5cmELF5ValidEv.exit.thread, label %_ZNK5cmELF5ValidEv.exit

_ZNK5cmELF5ValidEv.exit:                          ; preds = %2
  %4 = getelementptr inbounds i8, ptr %3, i64 28
  %5 = load i32, ptr %4, align 4
  %.not = icmp eq i32 %5, 0
  br i1 %.not, label %_ZNK5cmELF5ValidEv.exit.thread, label %6

6:                                                ; preds = %_ZNK5cmELF5ValidEv.exit
  %7 = load ptr, ptr %3, align 8
  %8 = getelementptr inbounds i8, ptr %7, i64 24
  %9 = load ptr, ptr %8, align 8
  %10 = tail call noundef i64 %9(ptr noundef nonnull align 8 dereferenceable(88) %3, i32 noundef %1)
  br label %_ZNK5cmELF5ValidEv.exit.thread

_ZNK5cmELF5ValidEv.exit.thread:                   ; preds = %2, %_ZNK5cmELF5ValidEv.exit, %6
  %.0 = phi i64 [ %10, %6 ], [ 0, %_ZNK5cmELF5ValidEv.exit ], [ 0, %2 ]
  ret i64 %.0
}